; Function Attrs: mustprogress uwtable
define void @cvChangeSeqBlock(ptr noundef %0, i32 noundef %1) local_unnamed_addr #0 personality ptr @__gxx_personality_v0 {
  %3 = alloca %"class.std::__cxx11::basic_string", align 8
  %4 = alloca %"class.std::allocator", align 1
  %.not = icmp eq ptr %0, null
  br i1 %.not, label %5, label %15

5:                                                ; preds = %2
  call void @llvm.lifetime.start.p0(i64 32, ptr nonnull %3) #11
  call void @llvm.lifetime.start.p0(i64 1, ptr nonnull %4) #11
  call void @_ZNSt7__cxx1112basic_stringIcSt11char_traitsIcESaIcEEC2EPKcRKS3_(ptr noundef nonnull align 8 dereferenceable(32) %3, ptr noundef nonnull @.str, ptr noundef nonnull align 1 dereferenceable(1) %4)
  invoke void @_ZN2cv5errorEiRKNSt7__cxx1112basic_stringIcSt11char_traitsIcESaIcEEEPKcS9_i(i32 noundef -27, ptr noundef nonnull align 8 dereferenceable(32) %3, ptr noundef nonnull @__func__.cvChangeSeqBlock, ptr noundef nonnull @.str.1, i32 noundef 995) #12
          to label %6 unwind label %7

6:                                                ; preds = %5
  unreachable

7:                                                ; preds = %5
  %8 = landingpad { ptr, i32 }
          cleanup
  %9 = load ptr, ptr %3, align 8, !tbaa !3
  %10 = getelementptr inbounds nuw i8, ptr %3, i64 16
  %11 = icmp eq ptr %9, %10
  br i1 %11, label %_ZNKSt7__cxx1112basic_stringIcSt11char_traitsIcESaIcEE11_M_is_localEv.exit.thread.i.i, label %_ZNKSt7__cxx1112basic_stringIcSt11char_traitsIcESaIcEE11_M_is_localEv.exit.i.i

_ZNKSt7__cxx1112basic_stringIcSt11char_traitsIcESaIcEE11_M_is_localEv.exit.thread.i.i: ; preds = %7
  %12 = getelementptr inbounds nuw i8, ptr %3, i64 8
  %13 = load i64, ptr %12, align 8, !tbaa !11
  %14 = icmp ult i64 %13, 16
  call void @llvm.assume(i1 %14)
  br label %_ZNSt7__cxx1112basic_stringIcSt11char_traitsIcESaIcEED2Ev.exit

_ZNKSt7__cxx1112basic_stringIcSt11char_traitsIcESaIcEE11_M_is_localEv.exit.i.i: ; preds = %7
  call void @_ZdlPv(ptr noundef %9) #13
  br label %_ZNSt7__cxx1112basic_stringIcSt11char_traitsIcESaIcEED2Ev.exit

_ZNSt7__cxx1112basic_stringIcSt11char_traitsIcESaIcEED2Ev.exit: ; preds = %_ZNKSt7__cxx1112basic_stringIcSt11char_traitsIcESaIcEE11_M_is_localEv.exit.i.i, %_ZNKSt7__cxx1112basic_stringIcSt11char_traitsIcESaIcEE11_M_is_localEv.exit.thread.i.i
  call void @llvm.lifetime.end.p0(i64 1, ptr nonnull %4) #11
  call void @llvm.lifetime.end.p0(i64 32, ptr nonnull %3) #11
  resume { ptr, i32 } %8

15:                                               ; preds = %2
  %16 = icmp sgt i32 %1, 0
  %17 = getelementptr inbounds nuw i8, ptr %0, i64 16
  %18 = load ptr, ptr %17, align 8, !tbaa !60
  %.phi.trans.insert23 = getelementptr inbounds nuw i8, ptr %0, i64 8
  br i1 %16, label %19, label %24

19:                                               ; preds = %15
  %20 = getelementptr inbounds nuw i8, ptr %18, i64 8
  %21 = load ptr, ptr %20, align 8, !tbaa !46
  store ptr %21, ptr %17, align 8, !tbaa !60
  %22 = getelementptr inbounds nuw i8, ptr %21, i64 24
  %23 = load ptr, ptr %22, align 8, !tbaa !50
  %.phi.trans.insert = getelementptr inbounds nuw i8, ptr %21, i64 20
  %.pre = load i32, ptr %.phi.trans.insert, align 4, !tbaa !44
  %.pre24 = load ptr, ptr %.phi.trans.insert23, align 8, !tbaa !57
  %.phi.trans.insert25 = getelementptr inbounds nuw i8, ptr %.pre24, i64 44
  %.pre26 = load i32, ptr %.phi.trans.insert25, align 4, !tbaa !39
  br label %37

24:                                               ; preds = %15
  %25 = load ptr, ptr %18, align 8, !tbaa !48
  store ptr %25, ptr %17, align 8, !tbaa !60
  %26 = getelementptr inbounds nuw i8, ptr %25, i64 24
  %27 = load ptr, ptr %26, align 8, !tbaa !50
  %28 = getelementptr inbounds nuw i8, ptr %25, i64 20
  %29 = load i32, ptr %28, align 4, !tbaa !44
  %30 = add nsw i32 %29, -1
  %31 = load ptr, ptr %.phi.trans.insert23, align 8, !tbaa !57
  %32 = getelementptr inbounds nuw i8, ptr %31, i64 44
  %33 = load i32, ptr %32, align 4, !tbaa !39
  %34 = mul nsw i32 %33, %30
  %35 = sext i32 %34 to i64
  %36 = getelementptr inbounds i8, ptr %27, i64 %35
  br label %37

37:                                               ; preds = %24, %19
  %38 = phi i32 [ %.pre26, %19 ], [ %33, %24 ]
  %39 = phi i32 [ %.pre, %19 ], [ %29, %24 ]
  %40 = phi ptr [ %23, %19 ], [ %27, %24 ]
  %.sink = phi ptr [ %23, %19 ], [ %36, %24 ]
  %41 = getelementptr inbounds nuw i8, ptr %0, i64 24
  store ptr %.sink, ptr %41, align 8, !tbaa !58
  %42 = getelementptr inbounds nuw i8, ptr %0, i64 32
  store ptr %40, ptr %42, align 8, !tbaa !61
  %43 = mul nsw i32 %38, %39
  %44 = sext i32 %43 to i64
  %45 = getelementptr inbounds i8, ptr %40, i64 %44
  %46 = getelementptr inbounds nuw i8, ptr %0, i64 40
  store ptr %45, ptr %46, align 8, !tbaa !62
  ret void
}